; Function Attrs: nounwind sspstrong uwtable
define dso_local void @bdrv_set_dirty(ptr noundef %bs, i64 noundef %offset, i64 noundef %bytes) local_unnamed_addr #0 {
entry:
  %dirty_bitmaps = getelementptr inbounds nuw i8, ptr %bs, i64 16952
  %0 = load ptr, ptr %dirty_bitmaps, align 8
  %cmp = icmp eq ptr %0, null
  br i1 %cmp, label %return, label %if.end

if.end:                                           ; preds = %entry
  %1 = load atomic i64, ptr @qemu_mutex_lock_func monotonic, align 8
  %2 = inttoptr i64 %1 to ptr
  %dirty_bitmap_mutex.i = getelementptr inbounds nuw i8, ptr %bs, i64 16904
  tail call void %2(ptr noundef nonnull %dirty_bitmap_mutex.i, ptr noundef nonnull @.str.1, i32 noundef 66) #14
  %bitmap.010 = load ptr, ptr %dirty_bitmaps, align 8
  %tobool.not11 = icmp eq ptr %bitmap.010, null
  br i1 %tobool.not11, label %for.end, label %for.body

for.body:                                         ; preds = %if.end, %for.inc
  %bitmap.012 = phi ptr [ %bitmap.0, %for.inc ], [ %bitmap.010, %if.end ]
  %disabled.i = getelementptr inbounds nuw i8, ptr %bitmap.012, i64 48
  %3 = load i8, ptr %disabled.i, align 8
  %tobool.i = trunc i8 %3 to i1
  br i1 %tobool.i, label %for.inc, label %if.end4

if.end4:                                          ; preds = %for.body
  %readonly.i = getelementptr inbounds nuw i8, ptr %bitmap.012, i64 56
  %4 = load i8, ptr %readonly.i, align 8
  %tobool.i8 = trunc i8 %4 to i1
  br i1 %tobool.i8, label %if.else, label %if.end7

if.else:                                          ; preds = %if.end4
  tail call void @__assert_fail(ptr noundef nonnull @.str.21, ptr noundef nonnull @.str.1, i32 noundef 670, ptr noundef nonnull @__PRETTY_FUNCTION__.bdrv_set_dirty) #15
  unreachable

if.end7:                                          ; preds = %if.end4
  %bitmap8 = getelementptr inbounds nuw i8, ptr %bitmap.012, i64 8
  %5 = load ptr, ptr %bitmap8, align 8
  tail call void @hbitmap_set(ptr noundef %5, i64 noundef %offset, i64 noundef %bytes) #14
  br label %for.inc

for.inc:                                          ; preds = %for.body, %if.end7
  %list = getelementptr inbounds nuw i8, ptr %bitmap.012, i64 64
  %bitmap.0 = load ptr, ptr %list, align 8
  %tobool.not = icmp eq ptr %bitmap.0, null
  br i1 %tobool.not, label %for.end, label %for.body, !llvm.loop !10

for.end:                                          ; preds = %for.inc, %if.end
  tail call void @qemu_mutex_unlock_impl(ptr noundef nonnull %dirty_bitmap_mutex.i, ptr noundef nonnull @.str.1, i32 noundef 71) #14
  br label %return

return:                                           ; preds = %entry, %for.end
  ret void
}